target datalayout = "e-m:e-p270:32:32-p271:32:32-p272:64:64-i64:64-i128:128-f80:128-n8:16:32:64-S128"
target triple = "x86_64-pc-linux-gnu"

@.str = private unnamed_addr constant [3 x i8] c"Ok\00", align 1
@.str.1 = private unnamed_addr constant [36 x i8] c"Metadata keys cannot be zero length\00", align 1
@.str.2 = private unnamed_addr constant [47 x i8] c"Metadata keys cannot be larger than UINT32_MAX\00", align 1
@.str.3 = private unnamed_addr constant [19 x i8] c"Illegal header key\00", align 1
@.str.4 = private unnamed_addr constant [21 x i8] c"Illegal header value\00", align 1
@.str.5 = private unnamed_addr constant [17 x i8] c"return \22Unknown\22\00", align 1
@.str.6 = private unnamed_addr constant [129 x i8] c"generated/home/dtcxzyw/WorkSpace/Projects/compilers/llvm-opt-benchmark/bench/grpc/grpc/src/core/lib/surface/validate_metadata.cc\00", align 1

; Function Attrs: mustprogress uwtable
define noundef ptr @_ZN9grpc_core30ValidateMetadataResultToStringENS_22ValidateMetadataResultE(i8 noundef zeroext %0) #4 {
  %2 = alloca ptr, align 8
  %3 = alloca i8, align 1
  store i8 %0, ptr %3, align 1, !tbaa !17
  %4 = load i8, ptr %3, align 1, !tbaa !17
  switch i8 %4, label %10 [
    i8 0, label %5
    i8 1, label %6
    i8 2, label %7
    i8 3, label %8
    i8 4, label %9
  ]

5:                                                ; preds = %1
  store ptr @.str, ptr %2, align 8
  br label %13

6:                                                ; preds = %1
  store ptr @.str.1, ptr %2, align 8
  br label %13

7:                                                ; preds = %1
  store ptr @.str.2, ptr %2, align 8
  br label %13

8:                                                ; preds = %1
  store ptr @.str.3, ptr %2, align 8
  br label %13

9:                                                ; preds = %1
  store ptr @.str.4, ptr %2, align 8
  br label %13

10:                                               ; preds = %1
  br label %11

11:                                               ; preds = %10
  call void @gpr_unreachable_code(ptr noundef @.str.5, ptr noundef @.str.6, i32 noundef 87) #13
  unreachable

12:                                               ; No predecessors!
  unreachable

13:                                               ; preds = %9, %8, %7, %6, %5
  %14 = load ptr, ptr %2, align 8
  ret ptr %14
}